(lp0
(VBuildings
p1
tp2
a(VNo Buildings
p3
tp4
a(VNo Buildings
p5
tp6
a(VBuildings
p7
tp8
a(VNo Buildings
p9
tp10
a(VNo Buildings
p11
tp12
a(VBuildings
p13
tp14
a(VBuildings
p15
tp16
a(VNo Buildings
p17
tp18
a(VBuildings
p19
tp20
a(VNo Buildings
p21
tp22
a(VNo Buildings
p23
tp24
a(VNo Buildings
p25
tp26
a(VBuildings
p27
tp28
a(VBuildings
p29
tp30
a(VBuildings
p31
tp32
a(VNo Buildings
p33
tp34
a(VNo Buildings
p35
tp36
a(VNo Buildings
p37
tp38
a(VNo Buildings
p39
tp40
a(VBuildings
p41
tp42
a(VNo Buildings
p43
tp44
a(VBuildings
p45
tp46
a(VBuildings
p47
tp48
a(VNo Buildings
p49
tp50
a(VNo Buildings
p51
tp52
a(VBuildings
p53
tp54
a(VNo Buildings
p55
tp56
a(VNo Buildings
p57
tp58
a(VBuildings
p59
tp60
a(VNo Buildings
p61
tp62
a(VNo Buildings
p63
tp64
a(VBuildings
p65
tp66
a(VBuildings
p67
tp68
a(VNo Buildings
p69
tp70
a(VNo Buildings
p71
tp72
a(VNo Buildings
p73
tp74
a(VBuildings
p75
tp76
a(VNo Buildings
p77
tp78
a(VNo Buildings
p79
tp80
a(VNo Buildings
p81
tp82
a(VBuildings
p83
tp84
a(VNo Buildings
p85
tp86
a(VNo Buildings
p87
tp88
a(VBuildings
p89
tp90
a(VNo Buildings
p91
tp92
a(VBuildings
p93
tp94
a(VNo Buildings
p95
tp96
a(VBuildings
p97
tp98
a(VBuildings
p99
tp100
a(VNo Buildings
p101
tp102
a(VBuildings
p103
tp104
a(VNo Buildings
p105
tp106
a(VNo Buildings
p107
tp108
a(VNo Buildings
p109
tp110
a(VBuildings
p111
tp112
a(VBuildings
p113
tp114
a(VNo Buildings
p115
tp116
a(VNo Buildings
p117
tp118
a(VNo Buildings
p119
tp120
a(VNo Buildings
p121
tp122
a(VBuildings
p123
tp124
a(VNo Buildings
p125
tp126
a(VNo Buildings
p127
tp128
a(VNo Buildings
p129
tp130
a(VBuildings
p131
tp132
a(VNo Buildings
p133
tp134
a(VNo Buildings
p135
tp136
a(VNo Buildings
p137
tp138
a(VNo Buildings
p139
tp140
a(VNo Buildings
p141
tp142
a(VNo Buildings
p143
tp144
a(VBuildings
p145
tp146
a(VBuildings
p147
tp148
a(VNo Buildings
p149
tp150
a(VBuildings
p151
tp152
a(VNo Buildings
p153
tp154
a(VBuildings
p155
tp156
a(VNo Buildings
p157
tp158
a(VNo Buildings
p159
tp160
a(VBuildings
p161
tp162
a(VBuildings
p163
tp164
a(VBuildings
p165
tp166
a(VNo Buildings
p167
tp168
a(VBuildings
p169
tp170
a(VNo Buildings
p171
tp172
a(VBuildings
p173
tp174
a(VNo Buildings
p175
tp176
a(VBuildings
p177
tp178
a(VNo Buildings
p179
tp180
a(VNo Buildings
p181
tp182
a(VBuildings
p183
tp184
a(VNo Buildings
p185
tp186
a(VNo Buildings
p187
tp188
a(VNo Buildings
p189
tp190
a(VBuildings
p191
tp192
a(VBuildings
p193
tp194
a(VNo Buildings
p195
tp196
a(VBuildings
p197
tp198
a(VNo Buildings
p199
tp200
a(VBuildings
p201
tp202
a(VNo Buildings
p203
tp204
a(VNo Buildings
p205
tp206
a(VBuildings
p207
tp208
a(VNo Buildings
p209
tp210
a(VBuildings
p211
tp212
a(VBuildings
p213
tp214
a(VNo Buildings
p215
tp216
a(VNo Buildings
p217
tp218
a(VNo Buildings
p219
tp220
a(VNo Buildings
p221
tp222
a(VBuildings
p223
tp224
a(VNo Buildings
p225
tp226
a(VBuildings
p227
tp228
a(VBuildings
p229
tp230
a(VNo Buildings
p231
tp232
a(VNo Buildings
p233
tp234
a(VNo Buildings
p235
tp236
a(VNo Buildings
p237
tp238
a(VNo Buildings
p239
tp240
a(VNo Buildings
p241
tp242
a(VNo Buildings
p243
tp244
a(VNo Buildings
p245
tp246
a(VBuildings
p247
tp248
a(VNo Buildings
p249
tp250
a(VBuildings
p251
tp252
a(VNo Buildings
p253
tp254
a(VNo Buildings
p255
tp256
a(VNo Buildings
p257
tp258
a(VNo Buildings
p259
tp260
a(VBuildings
p261
tp262
a(VNo Buildings
p263
tp264
a(VBuildings
p265
tp266
a(VBuildings
p267
tp268
a(VBuildings
p269
tp270
a(VBuildings
p271
tp272
a(VBuildings
p273
tp274
a(VBuildings
p275
tp276
a(VBuildings
p277
tp278
a(VBuildings
p279
tp280
a(VNo Buildings
p281
tp282
a(VBuildings
p283
tp284
a(VNo Buildings
p285
tp286
a(VNo Buildings
p287
tp288
a(VNo Buildings
p289
tp290
a(VBuildings
p291
tp292
a(VNo Buildings
p293
tp294
a(VNo Buildings
p295
tp296
a(VBuildings
p297
tp298
a(VNo Buildings
p299
tp300
a(VNo Buildings
p301
tp302
a(VBuildings
p303
tp304
a(VBuildings
p305
tp306
a(VNo Buildings
p307
tp308
a(VNo Buildings
p309
tp310
a(VBuildings
p311
tp312
a(VBuildings
p313
tp314
a(VNo Buildings
p315
tp316
a(VNo Buildings
p317
tp318
a(VNo Buildings
p319
tp320
a(VBuildings
p321
tp322
a(VBuildings
p323
tp324
a(VNo Buildings
p325
tp326
a(VNo Buildings
p327
tp328
a(VNo Buildings
p329
tp330
a(VNo Buildings
p331
tp332
a(VNo Buildings
p333
tp334
a(VNo Buildings
p335
tp336
a(VNo Buildings
p337
tp338
a(VBuildings
p339
tp340
a(VNo Buildings
p341
tp342
a(VNo Buildings
p343
tp344
a(VNo Buildings
p345
tp346
a(VBuildings
p347
tp348
a(VNo Buildings
p349
tp350
a(VNo Buildings
p351
tp352
a(VBuildings
p353
tp354
a(VNo Buildings
p355
tp356
a(VNo Buildings
p357
tp358
a(VNo Buildings
p359
tp360
a(VNo Buildings
p361
tp362
a(VNo Buildings
p363
tp364
a(VNo Buildings
p365
tp366
a(VNo Buildings
p367
tp368
a(VNo Buildings
p369
tp370
a(VNo Buildings
p371
tp372
a(VNo Buildings
p373
tp374
a(VNo Buildings
p375
tp376
a(VBuildings
p377
tp378
a(VNo Buildings
p379
tp380
a(VNo Buildings
p381
tp382
a(VNo Buildings
p383
tp384
a(VNo Buildings
p385
tp386
a(VNo Buildings
p387
tp388
a(VBuildings
p389
tp390
a(VBuildings
p391
tp392
a(VNo Buildings
p393
tp394
a(VBuildings
p395
tp396
a(VBuildings
p397
tp398
a(VBuildings
p399
tp400
a(VNo Buildings
p401
tp402
a(VNo Buildings
p403
tp404
a(VBuildings
p405
tp406
a(VNo Buildings
p407
tp408
a(VNo Buildings
p409
tp410
a(VBuildings
p411
tp412
a(VBuildings
p413
tp414
a(VNo Buildings
p415
tp416
a(VBuildings
p417
tp418
a(VNo Buildings
p419
tp420
a(VNo Buildings
p421
tp422
a(VBuildings
p423
tp424
a(VBuildings
p425
tp426
a(VNo Buildings
p427
tp428
a(VBuildings
p429
tp430
a(VNo Buildings
p431
tp432
a(VNo Buildings
p433
tp434
a(VNo Buildings
p435
tp436
a(VNo Buildings
p437
tp438
a(VBuildings
p439
tp440
a(VNo Buildings
p441
tp442
a(VNo Buildings
p443
tp444
a(VBuildings
p445
tp446
a(VNo Buildings
p447
tp448
a(VNo Buildings
p449
tp450
a(VNo Buildings
p451
tp452
a(VBuildings
p453
tp454
a(VNo Buildings
p455
tp456
a(VNo Buildings
p457
tp458
a(VBuildings
p459
tp460
a(VBuildings
p461
tp462
a(VBuildings
p463
tp464
a(VNo Buildings
p465
tp466
a(VBuildings
p467
tp468
a(VBuildings
p469
tp470
a(VNo Buildings
p471
tp472
a(VBuildings
p473
tp474
a(VNo Buildings
p475
tp476
a(VBuildings
p477
tp478
a(VNo Buildings
p479
tp480
a(VNo Buildings
p481
tp482
a(VNo Buildings
p483
tp484
a(VNo Buildings
p485
tp486
a(VBuildings
p487
tp488
a(VNo Buildings
p489
tp490
a(VNo Buildings
p491
tp492
a(VBuildings
p493
tp494
a(VBuildings
p495
tp496
a(VNo Buildings
p497
tp498
a(VNo Buildings
p499
tp500
a(VBuildings
p501
tp502
a(VNo Buildings
p503
tp504
a(VBuildings
p505
tp506
a(VNo Buildings
p507
tp508
a(VNo Buildings
p509
tp510
a(VNo Buildings
p511
tp512
a(VNo Buildings
p513
tp514
a(VBuildings
p515
tp516
a(VNo Buildings
p517
tp518
a(VNo Buildings
p519
tp520
a(VBuildings
p521
tp522
a(VNo Buildings
p523
tp524
a(VNo Buildings
p525
tp526
a(VNo Buildings
p527
tp528
a(VBuildings
p529
tp530
a(VNo Buildings
p531
tp532
a(VNo Buildings
p533
tp534
a(VNo Buildings
p535
tp536
a(VNo Buildings
p537
tp538
a(VNo Buildings
p539
tp540
a(VNo Buildings
p541
tp542
a(VNo Buildings
p543
tp544
a(VBuildings
p545
tp546
a(VBuildings
p547
tp548
a(VNo Buildings
p549
tp550
a(VBuildings
p551
tp552
a(VBuildings
p553
tp554
a(VNo Buildings
p555
tp556
a(VBuildings
p557
tp558
a(VNo Buildings
p559
tp560
a(VNo Buildings
p561
tp562
a(VNo Buildings
p563
tp564
a(VNo Buildings
p565
tp566
a(VBuildings
p567
tp568
a(VBuildings
p569
tp570
a(VNo Buildings
p571
tp572
a(VNo Buildings
p573
tp574
a(VBuildings
p575
tp576
a(VNo Buildings
p577
tp578
a(VBuildings
p579
tp580
a(VNo Buildings
p581
tp582
a(VNo Buildings
p583
tp584
a(VBuildings
p585
tp586
a(VNo Buildings
p587
tp588
a(VNo Buildings
p589
tp590
a(VNo Buildings
p591
tp592
a(VNo Buildings
p593
tp594
a(VBuildings
p595
tp596
a(VBuildings
p597
tp598
a(VNo Buildings
p599
tp600
a(VNo Buildings
p601
tp602
a(VNo Buildings
p603
tp604
a(VNo Buildings
p605
tp606
a(VBuildings
p607
tp608
a(VBuildings
p609
tp610
a(VBuildings
p611
tp612
a(VNo Buildings
p613
tp614
a(VNo Buildings
p615
tp616
a(VBuildings
p617
tp618
a(VNo Buildings
p619
tp620
a(VNo Buildings
p621
tp622
a(VNo Buildings
p623
tp624
a(VBuildings
p625
tp626
a(VNo Buildings
p627
tp628
a(VNo Buildings
p629
tp630
a(VNo Buildings
p631
tp632
a(VBuildings
p633
tp634
a(VBuildings
p635
tp636
a(VBuildings
p637
tp638
a(VNo Buildings
p639
tp640
a(VBuildings
p641
tp642
a(VBuildings
p643
tp644
a(VNo Buildings
p645
tp646
a(VNo Buildings
p647
tp648
a(VBuildings
p649
tp650
a(VNo Buildings
p651
tp652
a(VBuildings
p653
tp654
a(VBuildings
p655
tp656
a(VNo Buildings
p657
tp658
a(VNo Buildings
p659
tp660
a(VNo Buildings
p661
tp662
a(VNo Buildings
p663
tp664
a(VNo Buildings
p665
tp666
a(VNo Buildings
p667
tp668
a(VBuildings
p669
tp670
a(VBuildings
p671
tp672
a(VNo Buildings
p673
tp674
a(VNo Buildings
p675
tp676
a(VBuildings
p677
tp678
a(VNo Buildings
p679
tp680
a(VNo Buildings
p681
tp682
a(VNo Buildings
p683
tp684
a(VNo Buildings
p685
tp686
a(VNo Buildings
p687
tp688
a(VNo Buildings
p689
tp690
a(VNo Buildings
p691
tp692
a(VNo Buildings
p693
tp694
a(VNo Buildings
p695
tp696
a(VBuildings
p697
tp698
a(VBuildings
p699
tp700
a(VBuildings
p701
tp702
a(VBuildings
p703
tp704
a(VNo Buildings
p705
tp706
a(VNo Buildings
p707
tp708
a(VBuildings
p709
tp710
a(VBuildings
p711
tp712
a(VNo Buildings
p713
tp714
a(VBuildings
p715
tp716
a(VNo Buildings
p717
tp718
a(VNo Buildings
p719
tp720
a(VBuildings
p721
tp722
a(VBuildings
p723
tp724
a(VNo Buildings
p725
tp726
a(VNo Buildings
p727
tp728
a(VBuildings
p729
tp730
a(VNo Buildings
p731
tp732
a(VBuildings
p733
tp734
a(VNo Buildings
p735
tp736
a(VBuildings
p737
tp738
a(VBuildings
p739
tp740
a(VNo Buildings
p741
tp742
a(VNo Buildings
p743
tp744
a(VNo Buildings
p745
tp746
a(VNo Buildings
p747
tp748
a(VNo Buildings
p749
tp750
a(VBuildings
p751
tp752
a(VNo Buildings
p753
tp754
a(VNo Buildings
p755
tp756
a(VNo Buildings
p757
tp758
a(VBuildings
p759
tp760
a(VBuildings
p761
tp762
a(VBuildings
p763
tp764
a(VNo Buildings
p765
tp766
a(VNo Buildings
p767
tp768
a(VNo Buildings
p769
tp770
a(VNo Buildings
p771
tp772
a(VBuildings
p773
tp774
a(VBuildings
p775
tp776
a(VNo Buildings
p777
tp778
a(VNo Buildings
p779
tp780
a(VNo Buildings
p781
tp782
a(VBuildings
p783
tp784
a(VNo Buildings
p785
tp786
a(VNo Buildings
p787
tp788
a(VBuildings
p789
tp790
a(VBuildings
p791
tp792
a(VNo Buildings
p793
tp794
a(VNo Buildings
p795
tp796
a(VNo Buildings
p797
tp798
a(VNo Buildings
p799
tp800
a(VNo Buildings
p801
tp802
a(VNo Buildings
p803
tp804
a(VBuildings
p805
tp806
a(VNo Buildings
p807
tp808
a(VBuildings
p809
tp810
a(VNo Buildings
p811
tp812
a(VNo Buildings
p813
tp814
a(VBuildings
p815
tp816
a(VNo Buildings
p817
tp818
a(VBuildings
p819
tp820
a(VBuildings
p821
tp822
a(VBuildings
p823
tp824
a(VNo Buildings
p825
tp826
a(VNo Buildings
p827
tp828
a(VNo Buildings
p829
tp830
a(VBuildings
p831
tp832
a(VNo Buildings
p833
tp834
a(VNo Buildings
p835
tp836
a(VBuildings
p837
tp838
a(VNo Buildings
p839
tp840
a(VBuildings
p841
tp842
a(VBuildings
p843
tp844
a(VNo Buildings
p845
tp846
a(VNo Buildings
p847
tp848
a(VNo Buildings
p849
tp850
a(VNo Buildings
p851
tp852
a(VNo Buildings
p853
tp854
a(VNo Buildings
p855
tp856
a(VNo Buildings
p857
tp858
a(VNo Buildings
p859
tp860
a(VNo Buildings
p861
tp862
a(VNo Buildings
p863
tp864
a(VNo Buildings
p865
tp866
a(VNo Buildings
p867
tp868
a(VBuildings
p869
tp870
a(VBuildings
p871
tp872
a(VNo Buildings
p873
tp874
a(VNo Buildings
p875
tp876
a(VBuildings
p877
tp878
a(VBuildings
p879
tp880
a(VNo Buildings
p881
tp882
a(VBuildings
p883
tp884
a(VBuildings
p885
tp886
a(VNo Buildings
p887
tp888
a(VNo Buildings
p889
tp890
a(VNo Buildings
p891
tp892
a(VBuildings
p893
tp894
a(VNo Buildings
p895
tp896
a(VNo Buildings
p897
tp898
a(VBuildings
p899
tp900
a(VNo Buildings
p901
tp902
a(VNo Buildings
p903
tp904
a(VBuildings
p905
tp906
a(VNo Buildings
p907
tp908
a(VNo Buildings
p909
tp910
a(VNo Buildings
p911
tp912
a(VBuildings
p913
tp914
a(VNo Buildings
p915
tp916
a(VNo Buildings
p917
tp918
a(VBuildings
p919
tp920
a(VBuildings
p921
tp922
a(VNo Buildings
p923
tp924
a(VBuildings
p925
tp926
a(VNo Buildings
p927
tp928
a(VNo Buildings
p929
tp930
a(VNo Buildings
p931
tp932
a(VNo Buildings
p933
tp934
a(VBuildings
p935
tp936
a(VNo Buildings
p937
tp938
a(VNo Buildings
p939
tp940
a(VBuildings
p941
tp942
a(VNo Buildings
p943
tp944
a(VNo Buildings
p945
tp946
a(VNo Buildings
p947
tp948
a(VNo Buildings
p949
tp950
a(VNo Buildings
p951
tp952
a(VNo Buildings
p953
tp954
a(VBuildings
p955
tp956
a(VNo Buildings
p957
tp958
a(VNo Buildings
p959
tp960
a(VNo Buildings
p961
tp962
a(VNo Buildings
p963
tp964
a(VNo Buildings
p965
tp966
a(VNo Buildings
p967
tp968
a(VNo Buildings
p969
tp970
a(VBuildings
p971
tp972
a(VNo Buildings
p973
tp974
a(VNo Buildings
p975
tp976
a(VNo Buildings
p977
tp978
a(VNo Buildings
p979
tp980
a(VBuildings
p981
tp982
a(VNo Buildings
p983
tp984
a(VNo Buildings
p985
tp986
a(VBuildings
p987
tp988
a(VNo Buildings
p989
tp990
a(VBuildings
p991
tp992
a(VBuildings
p993
tp994
a(VBuildings
p995
tp996
a(VNo Buildings
p997
tp998
a(VNo Buildings
p999
tp1000
a(VBuildings
p1001
tp1002
a(VNo Buildings
p1003
tp1004
a(VNo Buildings
p1005
tp1006
a(VNo Buildings
p1007
tp1008
a(VNo Buildings
p1009
tp1010
a(VBuildings
p1011
tp1012
a(VBuildings
p1013
tp1014
a(VBuildings
p1015
tp1016
a(VNo Buildings
p1017
tp1018
a(VBuildings
p1019
tp1020
a(VNo Buildings
p1021
tp1022
a(VNo Buildings
p1023
tp1024
a(VNo Buildings
p1025
tp1026
a(VBuildings
p1027
tp1028
a(VNo Buildings
p1029
tp1030
a(VBuildings
p1031
tp1032
a(VBuildings
p1033
tp1034
a(VBuildings
p1035
tp1036
a(VNo Buildings
p1037
tp1038
a(VNo Buildings
p1039
tp1040
a(VNo Buildings
p1041
tp1042
a(VNo Buildings
p1043
tp1044
a(VNo Buildings
p1045
tp1046
a(VNo Buildings
p1047
tp1048
a(VNo Buildings
p1049
tp1050
a(VBuildings
p1051
tp1052
a(VBuildings
p1053
tp1054
a(VNo Buildings
p1055
tp1056
a(VBuildings
p1057
tp1058
a(VNo Buildings
p1059
tp1060
a(VNo Buildings
p1061
tp1062
a(VNo Buildings
p1063
tp1064
a(VNo Buildings
p1065
tp1066
a(VNo Buildings
p1067
tp1068
a(VNo Buildings
p1069
tp1070
a(VNo Buildings
p1071
tp1072
a(VNo Buildings
p1073
tp1074
a(VBuildings
p1075
tp1076
a(VNo Buildings
p1077
tp1078
a(VNo Buildings
p1079
tp1080
a(VNo Buildings
p1081
tp1082
a(VNo Buildings
p1083
tp1084
a(VNo Buildings
p1085
tp1086
a(VBuildings
p1087
tp1088
a(VBuildings
p1089
tp1090
a(VNo Buildings
p1091
tp1092
a(VNo Buildings
p1093
tp1094
a(VBuildings
p1095
tp1096
a(VNo Buildings
p1097
tp1098
a(VBuildings
p1099
tp1100
a(VBuildings
p1101
tp1102
a(VNo Buildings
p1103
tp1104
a(VBuildings
p1105
tp1106
a(VBuildings
p1107
tp1108
a(VBuildings
p1109
tp1110
a(VBuildings
p1111
tp1112
a(VNo Buildings
p1113
tp1114
a(VBuildings
p1115
tp1116
a(VBuildings
p1117
tp1118
a(VNo Buildings
p1119
tp1120
a(VBuildings
p1121
tp1122
a(VNo Buildings
p1123
tp1124
a(VBuildings
p1125
tp1126
a(VNo Buildings
p1127
tp1128
a(VNo Buildings
p1129
tp1130
a(VNo Buildings
p1131
tp1132
a(VNo Buildings
p1133
tp1134
a(VNo Buildings
p1135
tp1136
a(VBuildings
p1137
tp1138
a(VNo Buildings
p1139
tp1140
a(VNo Buildings
p1141
tp1142
a(VBuildings
p1143
tp1144
a(VNo Buildings
p1145
tp1146
a(VBuildings
p1147
tp1148
a(VNo Buildings
p1149
tp1150
a(VNo Buildings
p1151
tp1152
a(VBuildings
p1153
tp1154
a(VNo Buildings
p1155
tp1156
a(VNo Buildings
p1157
tp1158
a(VNo Buildings
p1159
tp1160
a(VBuildings
p1161
tp1162
a(VNo Buildings
p1163
tp1164
a(VNo Buildings
p1165
tp1166
a(VNo Buildings
p1167
tp1168
a(VNo Buildings
p1169
tp1170
a(VNo Buildings
p1171
tp1172
a(VNo Buildings
p1173
tp1174
a(VNo Buildings
p1175
tp1176
a(VNo Buildings
p1177
tp1178
a(VBuildings
p1179
tp1180
a(VBuildings
p1181
tp1182
a(VBuildings
p1183
tp1184
a(VBuildings
p1185
tp1186
a(VBuildings
p1187
tp1188
a(VNo Buildings
p1189
tp1190
a(VNo Buildings
p1191
tp1192
a(VNo Buildings
p1193
tp1194
a(VNo Buildings
p1195
tp1196
a(VNo Buildings
p1197
tp1198
a(VNo Buildings
p1199
tp1200
a(VBuildings
p1201
tp1202
a(VNo Buildings
p1203
tp1204
a(VNo Buildings
p1205
tp1206
a(VBuildings
p1207
tp1208
a(VBuildings
p1209
tp1210
a(VNo Buildings
p1211
tp1212
a(VNo Buildings
p1213
tp1214
a(VNo Buildings
p1215
tp1216
a(VBuildings
p1217
tp1218
a(VBuildings
p1219
tp1220
a(VNo Buildings
p1221
tp1222
a(VBuildings
p1223
tp1224
a(VNo Buildings
p1225
tp1226
a(VBuildings
p1227
tp1228
a(VNo Buildings
p1229
tp1230
a(VNo Buildings
p1231
tp1232
a(VNo Buildings
p1233
tp1234
a(VNo Buildings
p1235
tp1236
a(VBuildings
p1237
tp1238
a(VNo Buildings
p1239
tp1240
a(VNo Buildings
p1241
tp1242
a(VNo Buildings
p1243
tp1244
a(VNo Buildings
p1245
tp1246
a(VNo Buildings
p1247
tp1248
a(VBuildings
p1249
tp1250
a(VNo Buildings
p1251
tp1252
a(VNo Buildings
p1253
tp1254
a(VNo Buildings
p1255
tp1256
a(VNo Buildings
p1257
tp1258
a(VNo Buildings
p1259
tp1260
a(VNo Buildings
p1261
tp1262
a(VBuildings
p1263
tp1264
a(VBuildings
p1265
tp1266
a(VBuildings
p1267
tp1268
a(VBuildings
p1269
tp1270
a(VNo Buildings
p1271
tp1272
a(VNo Buildings
p1273
tp1274
a(VNo Buildings
p1275
tp1276
a(VBuildings
p1277
tp1278
a(VNo Buildings
p1279
tp1280
a(VBuildings
p1281
tp1282
a(VNo Buildings
p1283
tp1284
a(VNo Buildings
p1285
tp1286
a(VNo Buildings
p1287
tp1288
a(VNo Buildings
p1289
tp1290
a(VNo Buildings
p1291
tp1292
a(VBuildings
p1293
tp1294
a(VNo Buildings
p1295
tp1296
a(VNo Buildings
p1297
tp1298
a(VNo Buildings
p1299
tp1300
a(VBuildings
p1301
tp1302
a(VNo Buildings
p1303
tp1304
a(VNo Buildings
p1305
tp1306
a(VNo Buildings
p1307
tp1308
a(VNo Buildings
p1309
tp1310
a(VBuildings
p1311
tp1312
a(VNo Buildings
p1313
tp1314
a(VNo Buildings
p1315
tp1316
a(VNo Buildings
p1317
tp1318
a(VBuildings
p1319
tp1320
a(VBuildings
p1321
tp1322
a(VNo Buildings
p1323
tp1324
a(VNo Buildings
p1325
tp1326
a(VBuildings
p1327
tp1328
a(VNo Buildings
p1329
tp1330
a(VNo Buildings
p1331
tp1332
a(VNo Buildings
p1333
tp1334
a(VNo Buildings
p1335
tp1336
a(VNo Buildings
p1337
tp1338
a(VNo Buildings
p1339
tp1340
a(VBuildings
p1341
tp1342
a(VBuildings
p1343
tp1344
a(VBuildings
p1345
tp1346
a(VNo Buildings
p1347
tp1348
a(VNo Buildings
p1349
tp1350
a(VNo Buildings
p1351
tp1352
a(VNo Buildings
p1353
tp1354
a(VNo Buildings
p1355
tp1356
a(VNo Buildings
p1357
tp1358
a(VBuildings
p1359
tp1360
a(VNo Buildings
p1361
tp1362
a(VNo Buildings
p1363
tp1364
a(VNo Buildings
p1365
tp1366
a(VBuildings
p1367
tp1368
a(VNo Buildings
p1369
tp1370
a(VBuildings
p1371
tp1372
a(VBuildings
p1373
tp1374
a(VNo Buildings
p1375
tp1376
a(VBuildings
p1377
tp1378
a(VNo Buildings
p1379
tp1380
a(VNo Buildings
p1381
tp1382
a(VBuildings
p1383
tp1384
a(VNo Buildings
p1385
tp1386
a(VBuildings
p1387
tp1388
a(VBuildings
p1389
tp1390
a(VBuildings
p1391
tp1392
a(VBuildings
p1393
tp1394
a(VNo Buildings
p1395
tp1396
a(VNo Buildings
p1397
tp1398
a(VBuildings
p1399
tp1400
a(VNo Buildings
p1401
tp1402
a(VNo Buildings
p1403
tp1404
a(VNo Buildings
p1405
tp1406
a(VNo Buildings
p1407
tp1408
a(VNo Buildings
p1409
tp1410
a(VBuildings
p1411
tp1412
a(VNo Buildings
p1413
tp1414
a(VBuildings
p1415
tp1416
a(VBuildings
p1417
tp1418
a(VBuildings
p1419
tp1420
a(VNo Buildings
p1421
tp1422
a(VNo Buildings
p1423
tp1424
a(VNo Buildings
p1425
tp1426
a(VNo Buildings
p1427
tp1428
a(VNo Buildings
p1429
tp1430
a(VNo Buildings
p1431
tp1432
a(VNo Buildings
p1433
tp1434
a(VNo Buildings
p1435
tp1436
a(VNo Buildings
p1437
tp1438
a(VNo Buildings
p1439
tp1440
a(VNo Buildings
p1441
tp1442
a(VBuildings
p1443
tp1444
a(VBuildings
p1445
tp1446
a(VNo Buildings
p1447
tp1448
a(VBuildings
p1449
tp1450
a(VNo Buildings
p1451
tp1452
a(VNo Buildings
p1453
tp1454
a(VNo Buildings
p1455
tp1456
a(VBuildings
p1457
tp1458
a(VNo Buildings
p1459
tp1460
a(VNo Buildings
p1461
tp1462
a(VNo Buildings
p1463
tp1464
a(VNo Buildings
p1465
tp1466
a(VNo Buildings
p1467
tp1468
a(VNo Buildings
p1469
tp1470
a(VNo Buildings
p1471
tp1472
a(VNo Buildings
p1473
tp1474
a(VNo Buildings
p1475
tp1476
a(VBuildings
p1477
tp1478
a(VBuildings
p1479
tp1480
a(VNo Buildings
p1481
tp1482
a(VBuildings
p1483
tp1484
a(VNo Buildings
p1485
tp1486
a(VNo Buildings
p1487
tp1488
a(VBuildings
p1489
tp1490
a(VBuildings
p1491
tp1492
a(VBuildings
p1493
tp1494
a(VNo Buildings
p1495
tp1496
a(VNo Buildings
p1497
tp1498
a(VNo Buildings
p1499
tp1500
a(VBuildings
p1501
tp1502
a(VNo Buildings
p1503
tp1504
a(VBuildings
p1505
tp1506
a(VNo Buildings
p1507
tp1508
a(VBuildings
p1509
tp1510
a(VNo Buildings
p1511
tp1512
a(VBuildings
p1513
tp1514
a(VNo Buildings
p1515
tp1516
a(VBuildings
p1517
tp1518
a(VBuildings
p1519
tp1520
a(VBuildings
p1521
tp1522
a(VNo Buildings
p1523
tp1524
a(VBuildings
p1525
tp1526
a(VBuildings
p1527
tp1528
a(VBuildings
p1529
tp1530
a(VNo Buildings
p1531
tp1532
a(VNo Buildings
p1533
tp1534
a(VNo Buildings
p1535
tp1536
a(VNo Buildings
p1537
tp1538
a(VNo Buildings
p1539
tp1540
a(VBuildings
p1541
tp1542
a(VNo Buildings
p1543
tp1544
a(VBuildings
p1545
tp1546
a(VNo Buildings
p1547
tp1548
a(VBuildings
p1549
tp1550
a(VNo Buildings
p1551
tp1552
a(VNo Buildings
p1553
tp1554
a(VNo Buildings
p1555
tp1556
a(VBuildings
p1557
tp1558
a(VBuildings
p1559
tp1560
a(VNo Buildings
p1561
tp1562
a(VBuildings
p1563
tp1564
a(VNo Buildings
p1565
tp1566
a(VNo Buildings
p1567
tp1568
a(VNo Buildings
p1569
tp1570
a(VBuildings
p1571
tp1572
a(VNo Buildings
p1573
tp1574
a(VBuildings
p1575
tp1576
a(VNo Buildings
p1577
tp1578
a(VBuildings
p1579
tp1580
a(VNo Buildings
p1581
tp1582
a(VNo Buildings
p1583
tp1584
a(VNo Buildings
p1585
tp1586
a(VNo Buildings
p1587
tp1588
a(VNo Buildings
p1589
tp1590
a(VNo Buildings
p1591
tp1592
a(VBuildings
p1593
tp1594
a(VNo Buildings
p1595
tp1596
a(VNo Buildings
p1597
tp1598
a(VBuildings
p1599
tp1600
a(VNo Buildings
p1601
tp1602
a(VBuildings
p1603
tp1604
a(VNo Buildings
p1605
tp1606
a(VNo Buildings
p1607
tp1608
a(VNo Buildings
p1609
tp1610
a(VNo Buildings
p1611
tp1612
a(VNo Buildings
p1613
tp1614
a(VNo Buildings
p1615
tp1616
a(VNo Buildings
p1617
tp1618
a(VBuildings
p1619
tp1620
a(VBuildings
p1621
tp1622
a(VNo Buildings
p1623
tp1624
a(VBuildings
p1625
tp1626
a(VBuildings
p1627
tp1628
a(VNo Buildings
p1629
tp1630
a(VNo Buildings
p1631
tp1632
a(VNo Buildings
p1633
tp1634
a(VNo Buildings
p1635
tp1636
a(VBuildings
p1637
tp1638
a(VBuildings
p1639
tp1640
a(VBuildings
p1641
tp1642
a(VBuildings
p1643
tp1644
a(VNo Buildings
p1645
tp1646
a(VNo Buildings
p1647
tp1648
a(VBuildings
p1649
tp1650
a(VNo Buildings
p1651
tp1652
a(VBuildings
p1653
tp1654
a(VNo Buildings
p1655
tp1656
a(VNo Buildings
p1657
tp1658
a(VBuildings
p1659
tp1660
a(VNo Buildings
p1661
tp1662
a(VNo Buildings
p1663
tp1664
a(VBuildings
p1665
tp1666
a(VNo Buildings
p1667
tp1668
a(VNo Buildings
p1669
tp1670
a(VNo Buildings
p1671
tp1672
a(VNo Buildings
p1673
tp1674
a(VBuildings
p1675
tp1676
a(VNo Buildings
p1677
tp1678
a(VNo Buildings
p1679
tp1680
a(VNo Buildings
p1681
tp1682
a(VNo Buildings
p1683
tp1684
a(VNo Buildings
p1685
tp1686
a(VBuildings
p1687
tp1688
a(VBuildings
p1689
tp1690
a(VNo Buildings
p1691
tp1692
a(VBuildings
p1693
tp1694
a(VBuildings
p1695
tp1696
a(VNo Buildings
p1697
tp1698
a(VBuildings
p1699
tp1700
a(VNo Buildings
p1701
tp1702
a(VBuildings
p1703
tp1704
a(VBuildings
p1705
tp1706
a(VBuildings
p1707
tp1708
a(VNo Buildings
p1709
tp1710
a(VNo Buildings
p1711
tp1712
a(VNo Buildings
p1713
tp1714
a(VBuildings
p1715
tp1716
a(VNo Buildings
p1717
tp1718
a(VNo Buildings
p1719
tp1720
a(VBuildings
p1721
tp1722
a(VNo Buildings
p1723
tp1724
a(VNo Buildings
p1725
tp1726
a(VBuildings
p1727
tp1728
a(VBuildings
p1729
tp1730
a(VNo Buildings
p1731
tp1732
a(VBuildings
p1733
tp1734
a(VBuildings
p1735
tp1736
a(VNo Buildings
p1737
tp1738
a(VNo Buildings
p1739
tp1740
a(VBuildings
p1741
tp1742
a(VNo Buildings
p1743
tp1744
a(VNo Buildings
p1745
tp1746
a(VNo Buildings
p1747
tp1748
a(VNo Buildings
p1749
tp1750
a(VNo Buildings
p1751
tp1752
a(VBuildings
p1753
tp1754
a(VNo Buildings
p1755
tp1756
a(VNo Buildings
p1757
tp1758
a(VNo Buildings
p1759
tp1760
a(VBuildings
p1761
tp1762
a(VNo Buildings
p1763
tp1764
a(VBuildings
p1765
tp1766
a(VNo Buildings
p1767
tp1768
a(VNo Buildings
p1769
tp1770
a(VNo Buildings
p1771
tp1772
a(VNo Buildings
p1773
tp1774
a(VNo Buildings
p1775
tp1776
a(VNo Buildings
p1777
tp1778
a(VBuildings
p1779
tp1780
a(VBuildings
p1781
tp1782
a(VNo Buildings
p1783
tp1784
a(VNo Buildings
p1785
tp1786
a(VNo Buildings
p1787
tp1788
a(VBuildings
p1789
tp1790
a(VNo Buildings
p1791
tp1792
a(VNo Buildings
p1793
tp1794
a(VNo Buildings
p1795
tp1796
a(VNo Buildings
p1797
tp1798
a(VNo Buildings
p1799
tp1800
a(VBuildings
p1801
tp1802
a(VNo Buildings
p1803
tp1804
a(VBuildings
p1805
tp1806
a(VBuildings
p1807
tp1808
a(VNo Buildings
p1809
tp1810
a(VBuildings
p1811
tp1812
a(VNo Buildings
p1813
tp1814
a(VNo Buildings
p1815
tp1816
a(VNo Buildings
p1817
tp1818
a(VNo Buildings
p1819
tp1820
a(VBuildings
p1821
tp1822
a(VNo Buildings
p1823
tp1824
a(VNo Buildings
p1825
tp1826
a(VBuildings
p1827
tp1828
a(VNo Buildings
p1829
tp1830
a(VNo Buildings
p1831
tp1832
a(VNo Buildings
p1833
tp1834
a(VNo Buildings
p1835
tp1836
a(VBuildings
p1837
tp1838
a(VNo Buildings
p1839
tp1840
a(VBuildings
p1841
tp1842
a(VNo Buildings
p1843
tp1844
a(VNo Buildings
p1845
tp1846
a(VNo Buildings
p1847
tp1848
a(VNo Buildings
p1849
tp1850
a(VNo Buildings
p1851
tp1852
a(VBuildings
p1853
tp1854
a(VNo Buildings
p1855
tp1856
a(VNo Buildings
p1857
tp1858
a(VNo Buildings
p1859
tp1860
a(VBuildings
p1861
tp1862
a(VNo Buildings
p1863
tp1864
a(VBuildings
p1865
tp1866
a(VBuildings
p1867
tp1868
a(VBuildings
p1869
tp1870
a(VNo Buildings
p1871
tp1872
a(VNo Buildings
p1873
tp1874
a(VNo Buildings
p1875
tp1876
a(VNo Buildings
p1877
tp1878
a(VBuildings
p1879
tp1880
a(VNo Buildings
p1881
tp1882
a(VNo Buildings
p1883
tp1884
a(VBuildings
p1885
tp1886
a(VNo Buildings
p1887
tp1888
a(VBuildings
p1889
tp1890
a(VNo Buildings
p1891
tp1892
a(VNo Buildings
p1893
tp1894
a(VNo Buildings
p1895
tp1896
a(VNo Buildings
p1897
tp1898
a(VNo Buildings
p1899
tp1900
a(VNo Buildings
p1901
tp1902
a(VNo Buildings
p1903
tp1904
a(VBuildings
p1905
tp1906
a(VNo Buildings
p1907
tp1908
a(VNo Buildings
p1909
tp1910
a(VNo Buildings
p1911
tp1912
a(VBuildings
p1913
tp1914
a(VNo Buildings
p1915
tp1916
a(VBuildings
p1917
tp1918
a(VBuildings
p1919
tp1920
a(VNo Buildings
p1921
tp1922
a(VBuildings
p1923
tp1924
a(VNo Buildings
p1925
tp1926
a(VNo Buildings
p1927
tp1928
a(VNo Buildings
p1929
tp1930
a(VNo Buildings
p1931
tp1932
a(VNo Buildings
p1933
tp1934
a(VNo Buildings
p1935
tp1936
a(VNo Buildings
p1937
tp1938
a(VNo Buildings
p1939
tp1940
a(VNo Buildings
p1941
tp1942
a(VBuildings
p1943
tp1944
a(VNo Buildings
p1945
tp1946
a(VNo Buildings
p1947
tp1948
a(VBuildings
p1949
tp1950
a(VBuildings
p1951
tp1952
a(VNo Buildings
p1953
tp1954
a(VNo Buildings
p1955
tp1956
a(VNo Buildings
p1957
tp1958
a(VNo Buildings
p1959
tp1960
a(VNo Buildings
p1961
tp1962
a(VNo Buildings
p1963
tp1964
a(VNo Buildings
p1965
tp1966
a(VBuildings
p1967
tp1968
a(VBuildings
p1969
tp1970
a(VNo Buildings
p1971
tp1972
a(VBuildings
p1973
tp1974
a(VBuildings
p1975
tp1976
a(VBuildings
p1977
tp1978
a(VBuildings
p1979
tp1980
a(VBuildings
p1981
tp1982
a(VNo Buildings
p1983
tp1984
a(VBuildings
p1985
tp1986
a(VBuildings
p1987
tp1988
a(VBuildings
p1989
tp1990
a(VNo Buildings
p1991
tp1992
a(VBuildings
p1993
tp1994
a(VBuildings
p1995
tp1996
a(VNo Buildings
p1997
tp1998
a(VNo Buildings
p1999
tp2000
a(VBuildings
p2001
tp2002
a(VNo Buildings
p2003
tp2004
a(VBuildings
p2005
tp2006
a(VNo Buildings
p2007
tp2008
a(VBuildings
p2009
tp2010
a(VBuildings
p2011
tp2012
a(VBuildings
p2013
tp2014
a(VNo Buildings
p2015
tp2016
a(VNo Buildings
p2017
tp2018
a(VNo Buildings
p2019
tp2020
a(VNo Buildings
p2021
tp2022
a(VNo Buildings
p2023
tp2024
a(VNo Buildings
p2025
tp2026
a(VNo Buildings
p2027
tp2028
a(VNo Buildings
p2029
tp2030
a(VNo Buildings
p2031
tp2032
a(VNo Buildings
p2033
tp2034
a(VNo Buildings
p2035
tp2036
a(VNo Buildings
p2037
tp2038
a(VNo Buildings
p2039
tp2040
a(VNo Buildings
p2041
tp2042
a(VNo Buildings
p2043
tp2044
a(VBuildings
p2045
tp2046
a(VNo Buildings
p2047
tp2048
a(VNo Buildings
p2049
tp2050
a(VNo Buildings
p2051
tp2052
a(VNo Buildings
p2053
tp2054
a(VBuildings
p2055
tp2056
a(VNo Buildings
p2057
tp2058
a(VNo Buildings
p2059
tp2060
a(VNo Buildings
p2061
tp2062
a(VBuildings
p2063
tp2064
a(VNo Buildings
p2065
tp2066
a(VNo Buildings
p2067
tp2068
a(VNo Buildings
p2069
tp2070
a(VNo Buildings
p2071
tp2072
a(VNo Buildings
p2073
tp2074
a(VNo Buildings
p2075
tp2076
a(VBuildings
p2077
tp2078
a(VBuildings
p2079
tp2080
a(VNo Buildings
p2081
tp2082
a(VNo Buildings
p2083
tp2084
a(VNo Buildings
p2085
tp2086
a(VNo Buildings
p2087
tp2088
a(VNo Buildings
p2089
tp2090
a(VNo Buildings
p2091
tp2092
a(VNo Buildings
p2093
tp2094
a(VBuildings
p2095
tp2096
a(VBuildings
p2097
tp2098
a(VNo Buildings
p2099
tp2100
a(VBuildings
p2101
tp2102
a(VNo Buildings
p2103
tp2104
a(VNo Buildings
p2105
tp2106
a(VBuildings
p2107
tp2108
a(VNo Buildings
p2109
tp2110
a(VBuildings
p2111
tp2112
a(VNo Buildings
p2113
tp2114
a(VNo Buildings
p2115
tp2116
a(VBuildings
p2117
tp2118
a(VNo Buildings
p2119
tp2120
a(VNo Buildings
p2121
tp2122
a(VBuildings
p2123
tp2124
a(VBuildings
p2125
tp2126
a(VNo Buildings
p2127
tp2128
a(VNo Buildings
p2129
tp2130
a(VNo Buildings
p2131
tp2132
a(VNo Buildings
p2133
tp2134
a(VNo Buildings
p2135
tp2136
a(VBuildings
p2137
tp2138
a(VNo Buildings
p2139
tp2140
a(VNo Buildings
p2141
tp2142
a(VNo Buildings
p2143
tp2144
a(VBuildings
p2145
tp2146
a(VNo Buildings
p2147
tp2148
a(VBuildings
p2149
tp2150
a(VNo Buildings
p2151
tp2152
a(VBuildings
p2153
tp2154
a(VNo Buildings
p2155
tp2156
a(VBuildings
p2157
tp2158
a(VNo Buildings
p2159
tp2160
a(VNo Buildings
p2161
tp2162
a(VBuildings
p2163
tp2164
a(VNo Buildings
p2165
tp2166
a(VNo Buildings
p2167
tp2168
a(VNo Buildings
p2169
tp2170
a(VNo Buildings
p2171
tp2172
a(VNo Buildings
p2173
tp2174
a(VNo Buildings
p2175
tp2176
a(VNo Buildings
p2177
tp2178
a(VNo Buildings
p2179
tp2180
a(VBuildings
p2181
tp2182
a(VNo Buildings
p2183
tp2184
a(VBuildings
p2185
tp2186
a(VBuildings
p2187
tp2188
a(VNo Buildings
p2189
tp2190
a(VBuildings
p2191
tp2192
a(VNo Buildings
p2193
tp2194
a(VNo Buildings
p2195
tp2196
a(VNo Buildings
p2197
tp2198
a(VNo Buildings
p2199
tp2200
a(VNo Buildings
p2201
tp2202
a(VBuildings
p2203
tp2204
a(VNo Buildings
p2205
tp2206
a(VNo Buildings
p2207
tp2208
a(VNo Buildings
p2209
tp2210
a(VBuildings
p2211
tp2212
a(VBuildings
p2213
tp2214
a(VBuildings
p2215
tp2216
a(VBuildings
p2217
tp2218
a(VNo Buildings
p2219
tp2220
a(VNo Buildings
p2221
tp2222
a(VBuildings
p2223
tp2224
a(VBuildings
p2225
tp2226
a(VBuildings
p2227
tp2228
a(VNo Buildings
p2229
tp2230
a(VNo Buildings
p2231
tp2232
a(VNo Buildings
p2233
tp2234
a(VNo Buildings
p2235
tp2236
a(VBuildings
p2237
tp2238
a(VNo Buildings
p2239
tp2240
a(VBuildings
p2241
tp2242
a(VNo Buildings
p2243
tp2244
a(VNo Buildings
p2245
tp2246
a(VBuildings
p2247
tp2248
a(VBuildings
p2249
tp2250
a(VBuildings
p2251
tp2252
a(VBuildings
p2253
tp2254
a(VBuildings
p2255
tp2256
a(VNo Buildings
p2257
tp2258
a(VBuildings
p2259
tp2260
a(VNo Buildings
p2261
tp2262
a(VNo Buildings
p2263
tp2264
a(VNo Buildings
p2265
tp2266
a(VNo Buildings
p2267
tp2268
a(VNo Buildings
p2269
tp2270
a(VBuildings
p2271
tp2272
a(VNo Buildings
p2273
tp2274
a(VNo Buildings
p2275
tp2276
a(VNo Buildings
p2277
tp2278
a(VBuildings
p2279
tp2280
a(VNo Buildings
p2281
tp2282
a(VNo Buildings
p2283
tp2284
a(VBuildings
p2285
tp2286
a(VBuildings
p2287
tp2288
a(VNo Buildings
p2289
tp2290
a(VBuildings
p2291
tp2292
a(VNo Buildings
p2293
tp2294
a(VBuildings
p2295
tp2296
a(VNo Buildings
p2297
tp2298
a(VBuildings
p2299
tp2300
a(VNo Buildings
p2301
tp2302
a(VNo Buildings
p2303
tp2304
a(VNo Buildings
p2305
tp2306
a(VBuildings
p2307
tp2308
a(VNo Buildings
p2309
tp2310
a(VNo Buildings
p2311
tp2312
a(VNo Buildings
p2313
tp2314
a(VNo Buildings
p2315
tp2316
a(VNo Buildings
p2317
tp2318
a(VBuildings
p2319
tp2320
a(VBuildings
p2321
tp2322
a(VNo Buildings
p2323
tp2324
a(VNo Buildings
p2325
tp2326
a(VBuildings
p2327
tp2328
a(VNo Buildings
p2329
tp2330
a(VBuildings
p2331
tp2332
a(VNo Buildings
p2333
tp2334
a(VNo Buildings
p2335
tp2336
a(VBuildings
p2337
tp2338
a(VNo Buildings
p2339
tp2340
a(VNo Buildings
p2341
tp2342
a(VNo Buildings
p2343
tp2344
a(VBuildings
p2345
tp2346
a(VNo Buildings
p2347
tp2348
a(VBuildings
p2349
tp2350
a(VNo Buildings
p2351
tp2352
a(VNo Buildings
p2353
tp2354
a(VNo Buildings
p2355
tp2356
a(VBuildings
p2357
tp2358
a(VBuildings
p2359
tp2360
a(VNo Buildings
p2361
tp2362
a(VNo Buildings
p2363
tp2364
a(VBuildings
p2365
tp2366
a(VBuildings
p2367
tp2368
a(VBuildings
p2369
tp2370
a(VBuildings
p2371
tp2372
a(VBuildings
p2373
tp2374
a(VNo Buildings
p2375
tp2376
a(VNo Buildings
p2377
tp2378
a(VNo Buildings
p2379
tp2380
a(VBuildings
p2381
tp2382
a(VNo Buildings
p2383
tp2384
a(VNo Buildings
p2385
tp2386
a(VBuildings
p2387
tp2388
a(VBuildings
p2389
tp2390
a(VNo Buildings
p2391
tp2392
a(VBuildings
p2393
tp2394
a(VBuildings
p2395
tp2396
a(VNo Buildings
p2397
tp2398
a(VNo Buildings
p2399
tp2400
a(VNo Buildings
p2401
tp2402
a(VNo Buildings
p2403
tp2404
a(VNo Buildings
p2405
tp2406
a(VNo Buildings
p2407
tp2408
a(VBuildings
p2409
tp2410
a(VNo Buildings
p2411
tp2412
a(VNo Buildings
p2413
tp2414
a(VNo Buildings
p2415
tp2416
a(VBuildings
p2417
tp2418
a(VNo Buildings
p2419
tp2420
a(VBuildings
p2421
tp2422
a(VNo Buildings
p2423
tp2424
a(VBuildings
p2425
tp2426
a(VNo Buildings
p2427
tp2428
a(VNo Buildings
p2429
tp2430
a(VNo Buildings
p2431
tp2432
a(VNo Buildings
p2433
tp2434
a(VNo Buildings
p2435
tp2436
a(VBuildings
p2437
tp2438
a(VBuildings
p2439
tp2440
a(VNo Buildings
p2441
tp2442
a(VNo Buildings
p2443
tp2444
a(VNo Buildings
p2445
tp2446
a(VNo Buildings
p2447
tp2448
a(VNo Buildings
p2449
tp2450
a(VBuildings
p2451
tp2452
a(VNo Buildings
p2453
tp2454
a(VNo Buildings
p2455
tp2456
a(VNo Buildings
p2457
tp2458
a(VNo Buildings
p2459
tp2460
a(VNo Buildings
p2461
tp2462
a(VBuildings
p2463
tp2464
a(VNo Buildings
p2465
tp2466
a(VNo Buildings
p2467
tp2468
a(VNo Buildings
p2469
tp2470
a(VNo Buildings
p2471
tp2472
a(VNo Buildings
p2473
tp2474
a(VBuildings
p2475
tp2476
a(VBuildings
p2477
tp2478
a(VNo Buildings
p2479
tp2480
a(VNo Buildings
p2481
tp2482
a(VNo Buildings
p2483
tp2484
a(VBuildings
p2485
tp2486
a(VNo Buildings
p2487
tp2488
a(VNo Buildings
p2489
tp2490
a(VBuildings
p2491
tp2492
a(VNo Buildings
p2493
tp2494
a(VNo Buildings
p2495
tp2496
a(VBuildings
p2497
tp2498
a(VNo Buildings
p2499
tp2500
a(VBuildings
p2501
tp2502
a(VNo Buildings
p2503
tp2504
a(VBuildings
p2505
tp2506
a(VNo Buildings
p2507
tp2508
a(VNo Buildings
p2509
tp2510
a(VBuildings
p2511
tp2512
a(VBuildings
p2513
tp2514
a(VNo Buildings
p2515
tp2516
a(VBuildings
p2517
tp2518
a(VNo Buildings
p2519
tp2520
a(VNo Buildings
p2521
tp2522
a(VBuildings
p2523
tp2524
a(VNo Buildings
p2525
tp2526
a(VBuildings
p2527
tp2528
a(VNo Buildings
p2529
tp2530
a(VBuildings
p2531
tp2532
a(VNo Buildings
p2533
tp2534
a(VBuildings
p2535
tp2536
a(VNo Buildings
p2537
tp2538
a(VBuildings
p2539
tp2540
a(VBuildings
p2541
tp2542
a(VNo Buildings
p2543
tp2544
a(VNo Buildings
p2545
tp2546
a(VNo Buildings
p2547
tp2548
a(VNo Buildings
p2549
tp2550
a(VNo Buildings
p2551
tp2552
a(VBuildings
p2553
tp2554
a(VNo Buildings
p2555
tp2556
a(VNo Buildings
p2557
tp2558
a(VBuildings
p2559
tp2560
a(VNo Buildings
p2561
tp2562
a(VNo Buildings
p2563
tp2564
a(VNo Buildings
p2565
tp2566
a(VNo Buildings
p2567
tp2568
a(VNo Buildings
p2569
tp2570
a(VNo Buildings
p2571
tp2572
a(VNo Buildings
p2573
tp2574
a(VNo Buildings
p2575
tp2576
a(VBuildings
p2577
tp2578
a(VNo Buildings
p2579
tp2580
a(VNo Buildings
p2581
tp2582
a(VNo Buildings
p2583
tp2584
a(VNo Buildings
p2585
tp2586
a(VBuildings
p2587
tp2588
a(VNo Buildings
p2589
tp2590
a(VNo Buildings
p2591
tp2592
a(VNo Buildings
p2593
tp2594
a(VNo Buildings
p2595
tp2596
a(VNo Buildings
p2597
tp2598
a(VNo Buildings
p2599
tp2600
a(VBuildings
p2601
tp2602
a(VNo Buildings
p2603
tp2604
a(VNo Buildings
p2605
tp2606
a(VBuildings
p2607
tp2608
a(VNo Buildings
p2609
tp2610
a(VNo Buildings
p2611
tp2612
a(VBuildings
p2613
tp2614
a(VNo Buildings
p2615
tp2616
a(VBuildings
p2617
tp2618
a(VBuildings
p2619
tp2620
a(VBuildings
p2621
tp2622
a(VNo Buildings
p2623
tp2624
a(VNo Buildings
p2625
tp2626
a(VBuildings
p2627
tp2628
a(VNo Buildings
p2629
tp2630
a(VBuildings
p2631
tp2632
a(VNo Buildings
p2633
tp2634
a(VNo Buildings
p2635
tp2636
a(VNo Buildings
p2637
tp2638
a(VNo Buildings
p2639
tp2640
a(VNo Buildings
p2641
tp2642
a(VNo Buildings
p2643
tp2644
a(VNo Buildings
p2645
tp2646
a(VNo Buildings
p2647
tp2648
a(VBuildings
p2649
tp2650
a(VBuildings
p2651
tp2652
a(VNo Buildings
p2653
tp2654
a(VNo Buildings
p2655
tp2656
a(VBuildings
p2657
tp2658
a(VBuildings
p2659
tp2660
a(VBuildings
p2661
tp2662
a(VNo Buildings
p2663
tp2664
a(VNo Buildings
p2665
tp2666
a(VNo Buildings
p2667
tp2668
a(VBuildings
p2669
tp2670
a(VBuildings
p2671
tp2672
a(VNo Buildings
p2673
tp2674
a(VBuildings
p2675
tp2676
a(VNo Buildings
p2677
tp2678
a(VNo Buildings
p2679
tp2680
a(VNo Buildings
p2681
tp2682
a(VBuildings
p2683
tp2684
a(VNo Buildings
p2685
tp2686
a(VNo Buildings
p2687
tp2688
a(VNo Buildings
p2689
tp2690
a(VBuildings
p2691
tp2692
a(VNo Buildings
p2693
tp2694
a(VBuildings
p2695
tp2696
a(VNo Buildings
p2697
tp2698
a(VNo Buildings
p2699
tp2700
a(VNo Buildings
p2701
tp2702
a(VNo Buildings
p2703
tp2704
a(VNo Buildings
p2705
tp2706
a(VBuildings
p2707
tp2708
a(VBuildings
p2709
tp2710
a(VBuildings
p2711
tp2712
a(VBuildings
p2713
tp2714
a(VNo Buildings
p2715
tp2716
a(VBuildings
p2717
tp2718
a(VBuildings
p2719
tp2720
a(VNo Buildings
p2721
tp2722
a(VBuildings
p2723
tp2724
a(VNo Buildings
p2725
tp2726
a(VNo Buildings
p2727
tp2728
a(VBuildings
p2729
tp2730
a(VBuildings
p2731
tp2732
a(VBuildings
p2733
tp2734
a(VNo Buildings
p2735
tp2736
a(VNo Buildings
p2737
tp2738
a(VNo Buildings
p2739
tp2740
a(VBuildings
p2741
tp2742
a(VBuildings
p2743
tp2744
a(VNo Buildings
p2745
tp2746
a(VNo Buildings
p2747
tp2748
a(VBuildings
p2749
tp2750
a(VBuildings
p2751
tp2752
a(VNo Buildings
p2753
tp2754
a(VNo Buildings
p2755
tp2756
a(VNo Buildings
p2757
tp2758
a(VNo Buildings
p2759
tp2760
a(VBuildings
p2761
tp2762
a(VBuildings
p2763
tp2764
a(VNo Buildings
p2765
tp2766
a(VNo Buildings
p2767
tp2768
a(VBuildings
p2769
tp2770
a(VBuildings
p2771
tp2772
a(VNo Buildings
p2773
tp2774
a(VBuildings
p2775
tp2776
a(VBuildings
p2777
tp2778
a(VNo Buildings
p2779
tp2780
a(VBuildings
p2781
tp2782
a(VNo Buildings
p2783
tp2784
a(VBuildings
p2785
tp2786
a(VBuildings
p2787
tp2788
a(VBuildings
p2789
tp2790
a(VBuildings
p2791
tp2792
a(VNo Buildings
p2793
tp2794
a(VNo Buildings
p2795
tp2796
a(VBuildings
p2797
tp2798
a(VNo Buildings
p2799
tp2800
a(VBuildings
p2801
tp2802
a(VNo Buildings
p2803
tp2804
a(VNo Buildings
p2805
tp2806
a(VNo Buildings
p2807
tp2808
a(VBuildings
p2809
tp2810
a(VBuildings
p2811
tp2812
a(VNo Buildings
p2813
tp2814
a(VBuildings
p2815
tp2816
a(VNo Buildings
p2817
tp2818
a(VNo Buildings
p2819
tp2820
a(VNo Buildings
p2821
tp2822
a(VNo Buildings
p2823
tp2824
a(VNo Buildings
p2825
tp2826
a(VNo Buildings
p2827
tp2828
a(VBuildings
p2829
tp2830
a(VBuildings
p2831
tp2832
a(VNo Buildings
p2833
tp2834
a(VNo Buildings
p2835
tp2836
a(VBuildings
p2837
tp2838
a(VBuildings
p2839
tp2840
a(VBuildings
p2841
tp2842
a(VBuildings
p2843
tp2844
a(VNo Buildings
p2845
tp2846
a(VBuildings
p2847
tp2848
a(VBuildings
p2849
tp2850
a(VBuildings
p2851
tp2852
a(VNo Buildings
p2853
tp2854
a(VNo Buildings
p2855
tp2856
a(VNo Buildings
p2857
tp2858
a(VNo Buildings
p2859
tp2860
a(VBuildings
p2861
tp2862
a(VNo Buildings
p2863
tp2864
a(VNo Buildings
p2865
tp2866
a(VNo Buildings
p2867
tp2868
a(VNo Buildings
p2869
tp2870
a(VBuildings
p2871
tp2872
a(VBuildings
p2873
tp2874
a(VNo Buildings
p2875
tp2876
a(VBuildings
p2877
tp2878
a(VBuildings
p2879
tp2880
a(VBuildings
p2881
tp2882
a(VNo Buildings
p2883
tp2884
a(VNo Buildings
p2885
tp2886
a(VBuildings
p2887
tp2888
a(VBuildings
p2889
tp2890
a(VNo Buildings
p2891
tp2892
a(VNo Buildings
p2893
tp2894
a(VNo Buildings
p2895
tp2896
a(VBuildings
p2897
tp2898
a(VNo Buildings
p2899
tp2900
a(VNo Buildings
p2901
tp2902
a(VBuildings
p2903
tp2904
a(VBuildings
p2905
tp2906
a(VNo Buildings
p2907
tp2908
a(VBuildings
p2909
tp2910
a(VNo Buildings
p2911
tp2912
a(VBuildings
p2913
tp2914
a(VBuildings
p2915
tp2916
a(VBuildings
p2917
tp2918
a(VBuildings
p2919
tp2920
a(VBuildings
p2921
tp2922
a(VBuildings
p2923
tp2924
a(VNo Buildings
p2925
tp2926
a(VNo Buildings
p2927
tp2928
a(VNo Buildings
p2929
tp2930
a(VNo Buildings
p2931
tp2932
a(VNo Buildings
p2933
tp2934
a(VBuildings
p2935
tp2936
a(VBuildings
p2937
tp2938
a(VNo Buildings
p2939
tp2940
a(VBuildings
p2941
tp2942
a(VNo Buildings
p2943
tp2944
a(VNo Buildings
p2945
tp2946
a(VBuildings
p2947
tp2948
a(VBuildings
p2949
tp2950
a(VBuildings
p2951
tp2952
a(VNo Buildings
p2953
tp2954
a(VNo Buildings
p2955
tp2956
a(VNo Buildings
p2957
tp2958
a(VBuildings
p2959
tp2960
a(VNo Buildings
p2961
tp2962
a(VNo Buildings
p2963
tp2964
a(VNo Buildings
p2965
tp2966
a(VNo Buildings
p2967
tp2968
a(VNo Buildings
p2969
tp2970
a(VBuildings
p2971
tp2972
a(VBuildings
p2973
tp2974
a(VNo Buildings
p2975
tp2976
a(VNo Buildings
p2977
tp2978
a(VBuildings
p2979
tp2980
a(VBuildings
p2981
tp2982
a(VBuildings
p2983
tp2984
a(VBuildings
p2985
tp2986
a(VNo Buildings
p2987
tp2988
a(VBuildings
p2989
tp2990
a(VNo Buildings
p2991
tp2992
a(VNo Buildings
p2993
tp2994
a(VNo Buildings
p2995
tp2996
a(VBuildings
p2997
tp2998
a(VNo Buildings
p2999
tp3000
a(VNo Buildings
p3001
tp3002
a(VBuildings
p3003
tp3004
a(VNo Buildings
p3005
tp3006
a(VBuildings
p3007
tp3008
a(VNo Buildings
p3009
tp3010
a(VNo Buildings
p3011
tp3012
a(VNo Buildings
p3013
tp3014
a(VNo Buildings
p3015
tp3016
a(VNo Buildings
p3017
tp3018
a(VBuildings
p3019
tp3020
a(VBuildings
p3021
tp3022
a(VNo Buildings
p3023
tp3024
a(VBuildings
p3025
tp3026
a(VNo Buildings
p3027
tp3028
a(VBuildings
p3029
tp3030
a(VNo Buildings
p3031
tp3032
a(VNo Buildings
p3033
tp3034
a(VNo Buildings
p3035
tp3036
a(VBuildings
p3037
tp3038
a(VBuildings
p3039
tp3040
a(VNo Buildings
p3041
tp3042
a(VNo Buildings
p3043
tp3044
a(VBuildings
p3045
tp3046
a(VNo Buildings
p3047
tp3048
a(VBuildings
p3049
tp3050
a(VNo Buildings
p3051
tp3052
a(VNo Buildings
p3053
tp3054
a(VBuildings
p3055
tp3056
a(VNo Buildings
p3057
tp3058
a(VNo Buildings
p3059
tp3060
a(VNo Buildings
p3061
tp3062
a(VNo Buildings
p3063
tp3064
a(VBuildings
p3065
tp3066
a(VNo Buildings
p3067
tp3068
a(VBuildings
p3069
tp3070
a(VNo Buildings
p3071
tp3072
a(VNo Buildings
p3073
tp3074
a(VBuildings
p3075
tp3076
a(VNo Buildings
p3077
tp3078
a(VBuildings
p3079
tp3080
a(VNo Buildings
p3081
tp3082
a(VNo Buildings
p3083
tp3084
a(VNo Buildings
p3085
tp3086
a(VBuildings
p3087
tp3088
a(VBuildings
p3089
tp3090
a(VNo Buildings
p3091
tp3092
a(VNo Buildings
p3093
tp3094
a(VBuildings
p3095
tp3096
a(VBuildings
p3097
tp3098
a(VNo Buildings
p3099
tp3100
a(VNo Buildings
p3101
tp3102
a(VBuildings
p3103
tp3104
a(VBuildings
p3105
tp3106
a(VNo Buildings
p3107
tp3108
a(VNo Buildings
p3109
tp3110
a(VNo Buildings
p3111
tp3112
a(VNo Buildings
p3113
tp3114
a(VNo Buildings
p3115
tp3116
a(VNo Buildings
p3117
tp3118
a(VNo Buildings
p3119
tp3120
a(VNo Buildings
p3121
tp3122
a(VBuildings
p3123
tp3124
a(VNo Buildings
p3125
tp3126
a(VBuildings
p3127
tp3128
a(VBuildings
p3129
tp3130
a(VNo Buildings
p3131
tp3132
a(VBuildings
p3133
tp3134
a(VNo Buildings
p3135
tp3136
a(VBuildings
p3137
tp3138
a(VNo Buildings
p3139
tp3140
a(VNo Buildings
p3141
tp3142
a(VNo Buildings
p3143
tp3144
a(VBuildings
p3145
tp3146
a(VNo Buildings
p3147
tp3148
a(VNo Buildings
p3149
tp3150
a(VNo Buildings
p3151
tp3152
a(VBuildings
p3153
tp3154
a(VNo Buildings
p3155
tp3156
a(VNo Buildings
p3157
tp3158
a(VNo Buildings
p3159
tp3160
a(VNo Buildings
p3161
tp3162
a(VNo Buildings
p3163
tp3164
a(VBuildings
p3165
tp3166
a(VBuildings
p3167
tp3168
a(VNo Buildings
p3169
tp3170
a(VNo Buildings
p3171
tp3172
a(VBuildings
p3173
tp3174
a(VNo Buildings
p3175
tp3176
a(VBuildings
p3177
tp3178
a(VNo Buildings
p3179
tp3180
a(VNo Buildings
p3181
tp3182
a(VNo Buildings
p3183
tp3184
a(VNo Buildings
p3185
tp3186
a(VBuildings
p3187
tp3188
a(VNo Buildings
p3189
tp3190
a(VNo Buildings
p3191
tp3192
a(VNo Buildings
p3193
tp3194
a(VBuildings
p3195
tp3196
a(VBuildings
p3197
tp3198
a(VNo Buildings
p3199
tp3200
a(VBuildings
p3201
tp3202
a(VNo Buildings
p3203
tp3204
a(VNo Buildings
p3205
tp3206
a(VBuildings
p3207
tp3208
a(VNo Buildings
p3209
tp3210
a(VBuildings
p3211
tp3212
a(VNo Buildings
p3213
tp3214
a(VNo Buildings
p3215
tp3216
a(VNo Buildings
p3217
tp3218
a(VNo Buildings
p3219
tp3220
a(VBuildings
p3221
tp3222
a(VNo Buildings
p3223
tp3224
a(VNo Buildings
p3225
tp3226
a(VBuildings
p3227
tp3228
a(VNo Buildings
p3229
tp3230
a(VBuildings
p3231
tp3232
a(VNo Buildings
p3233
tp3234
a(VNo Buildings
p3235
tp3236
a(VBuildings
p3237
tp3238
a(VNo Buildings
p3239
tp3240
a(VBuildings
p3241
tp3242
a(VBuildings
p3243
tp3244
a(VBuildings
p3245
tp3246
a(VNo Buildings
p3247
tp3248
a(VNo Buildings
p3249
tp3250
a(VNo Buildings
p3251
tp3252
a(VBuildings
p3253
tp3254
a(VNo Buildings
p3255
tp3256
a(VNo Buildings
p3257
tp3258
a(VBuildings
p3259
tp3260
a(VNo Buildings
p3261
tp3262
a(VNo Buildings
p3263
tp3264
a(VBuildings
p3265
tp3266
a(VNo Buildings
p3267
tp3268
a(VBuildings
p3269
tp3270
a(VNo Buildings
p3271
tp3272
a(VNo Buildings
p3273
tp3274
a(VBuildings
p3275
tp3276
a(VNo Buildings
p3277
tp3278
a(VNo Buildings
p3279
tp3280
a(VNo Buildings
p3281
tp3282
a(VNo Buildings
p3283
tp3284
a(VNo Buildings
p3285
tp3286
a(VBuildings
p3287
tp3288
a(VBuildings
p3289
tp3290
a(VBuildings
p3291
tp3292
a(VBuildings
p3293
tp3294
a(VBuildings
p3295
tp3296
a(VNo Buildings
p3297
tp3298
a(VNo Buildings
p3299
tp3300
a(VBuildings
p3301
tp3302
a(VNo Buildings
p3303
tp3304
a(VBuildings
p3305
tp3306
a(VNo Buildings
p3307
tp3308
a(VBuildings
p3309
tp3310
a(VBuildings
p3311
tp3312
a(VNo Buildings
p3313
tp3314
a(VBuildings
p3315
tp3316
a(VNo Buildings
p3317
tp3318
a(VBuildings
p3319
tp3320
a(VBuildings
p3321
tp3322
a(VNo Buildings
p3323
tp3324
a(VBuildings
p3325
tp3326
a(VNo Buildings
p3327
tp3328
a(VNo Buildings
p3329
tp3330
a(VNo Buildings
p3331
tp3332
a(VNo Buildings
p3333
tp3334
a(VNo Buildings
p3335
tp3336
a(VNo Buildings
p3337
tp3338
a(VNo Buildings
p3339
tp3340
a(VNo Buildings
p3341
tp3342
a(VNo Buildings
p3343
tp3344
a(VNo Buildings
p3345
tp3346
a(VBuildings
p3347
tp3348
a(VNo Buildings
p3349
tp3350
a(VBuildings
p3351
tp3352
a(VBuildings
p3353
tp3354
a(VNo Buildings
p3355
tp3356
a(VNo Buildings
p3357
tp3358
a(VBuildings
p3359
tp3360
a(VBuildings
p3361
tp3362
a(VBuildings
p3363
tp3364
a(VNo Buildings
p3365
tp3366
a(VBuildings
p3367
tp3368
a(VNo Buildings
p3369
tp3370
a(VNo Buildings
p3371
tp3372
a(VBuildings
p3373
tp3374
a(VNo Buildings
p3375
tp3376
a(VBuildings
p3377
tp3378
a(VNo Buildings
p3379
tp3380
a(VBuildings
p3381
tp3382
a(VNo Buildings
p3383
tp3384
a(VBuildings
p3385
tp3386
a(VBuildings
p3387
tp3388
a(VNo Buildings
p3389
tp3390
a(VNo Buildings
p3391
tp3392
a(VBuildings
p3393
tp3394
a(VBuildings
p3395
tp3396
a(VBuildings
p3397
tp3398
a(VBuildings
p3399
tp3400
a(VNo Buildings
p3401
tp3402
a(VNo Buildings
p3403
tp3404
a(VNo Buildings
p3405
tp3406
a(VNo Buildings
p3407
tp3408
a(VBuildings
p3409
tp3410
a(VNo Buildings
p3411
tp3412
a(VBuildings
p3413
tp3414
a(VNo Buildings
p3415
tp3416
a(VBuildings
p3417
tp3418
a(VNo Buildings
p3419
tp3420
a(VNo Buildings
p3421
tp3422
a(VNo Buildings
p3423
tp3424
a(VNo Buildings
p3425
tp3426
a(VNo Buildings
p3427
tp3428
a(VNo Buildings
p3429
tp3430
a(VNo Buildings
p3431
tp3432
a(VNo Buildings
p3433
tp3434
a(VBuildings
p3435
tp3436
a(VNo Buildings
p3437
tp3438
a(VNo Buildings
p3439
tp3440
a(VBuildings
p3441
tp3442
a(VBuildings
p3443
tp3444
a(VNo Buildings
p3445
tp3446
a(VBuildings
p3447
tp3448
a(VNo Buildings
p3449
tp3450
a(VNo Buildings
p3451
tp3452
a(VNo Buildings
p3453
tp3454
a(VBuildings
p3455
tp3456
a(VNo Buildings
p3457
tp3458
a(VNo Buildings
p3459
tp3460
a(VNo Buildings
p3461
tp3462
a(VNo Buildings
p3463
tp3464
a(VNo Buildings
p3465
tp3466
a(VNo Buildings
p3467
tp3468
a(VNo Buildings
p3469
tp3470
a(VBuildings
p3471
tp3472
a(VNo Buildings
p3473
tp3474
a(VNo Buildings
p3475
tp3476
a(VNo Buildings
p3477
tp3478
a(VNo Buildings
p3479
tp3480
a(VNo Buildings
p3481
tp3482
a(VNo Buildings
p3483
tp3484
a(VBuildings
p3485
tp3486
a(VBuildings
p3487
tp3488
a(VNo Buildings
p3489
tp3490
a(VNo Buildings
p3491
tp3492
a(VNo Buildings
p3493
tp3494
a(VBuildings
p3495
tp3496
a(VBuildings
p3497
tp3498
a(VBuildings
p3499
tp3500
a(VNo Buildings
p3501
tp3502
a(VBuildings
p3503
tp3504
a(VNo Buildings
p3505
tp3506
a(VNo Buildings
p3507
tp3508
a(VBuildings
p3509
tp3510
a(VNo Buildings
p3511
tp3512
a(VNo Buildings
p3513
tp3514
a(VNo Buildings
p3515
tp3516
a(VBuildings
p3517
tp3518
a(VNo Buildings
p3519
tp3520
a(VNo Buildings
p3521
tp3522
a(VNo Buildings
p3523
tp3524
a(VBuildings
p3525
tp3526
a(VBuildings
p3527
tp3528
a(VNo Buildings
p3529
tp3530
a(VBuildings
p3531
tp3532
a(VNo Buildings
p3533
tp3534
a(VBuildings
p3535
tp3536
a(VNo Buildings
p3537
tp3538
a(VBuildings
p3539
tp3540
a(VNo Buildings
p3541
tp3542
a(VNo Buildings
p3543
tp3544
a(VBuildings
p3545
tp3546
a(VNo Buildings
p3547
tp3548
a(VNo Buildings
p3549
tp3550
a(VNo Buildings
p3551
tp3552
a(VNo Buildings
p3553
tp3554
a(VNo Buildings
p3555
tp3556
a(VBuildings
p3557
tp3558
a(VNo Buildings
p3559
tp3560
a(VBuildings
p3561
tp3562
a(VBuildings
p3563
tp3564
a(VNo Buildings
p3565
tp3566
a(VNo Buildings
p3567
tp3568
a(VNo Buildings
p3569
tp3570
a(VNo Buildings
p3571
tp3572
a(VNo Buildings
p3573
tp3574
a(VNo Buildings
p3575
tp3576
a(VNo Buildings
p3577
tp3578
a(VNo Buildings
p3579
tp3580
a(VNo Buildings
p3581
tp3582
a(VNo Buildings
p3583
tp3584
a(VBuildings
p3585
tp3586
a(VNo Buildings
p3587
tp3588
a(VBuildings
p3589
tp3590
a(VNo Buildings
p3591
tp3592
a(VNo Buildings
p3593
tp3594
a(VNo Buildings
p3595
tp3596
a(VNo Buildings
p3597
tp3598
a(VNo Buildings
p3599
tp3600
a(VNo Buildings
p3601
tp3602
a(VBuildings
p3603
tp3604
a(VNo Buildings
p3605
tp3606
a(VNo Buildings
p3607
tp3608
a(VNo Buildings
p3609
tp3610
a(VNo Buildings
p3611
tp3612
a(VNo Buildings
p3613
tp3614
a(VBuildings
p3615
tp3616
a(VNo Buildings
p3617
tp3618
a(VNo Buildings
p3619
tp3620
a(VBuildings
p3621
tp3622
a(VBuildings
p3623
tp3624
a(VNo Buildings
p3625
tp3626
a(VNo Buildings
p3627
tp3628
a(VBuildings
p3629
tp3630
a(VNo Buildings
p3631
tp3632
a(VBuildings
p3633
tp3634
a(VBuildings
p3635
tp3636
a(VNo Buildings
p3637
tp3638
a(VBuildings
p3639
tp3640
a(VNo Buildings
p3641
tp3642
a(VNo Buildings
p3643
tp3644
a(VNo Buildings
p3645
tp3646
a(VBuildings
p3647
tp3648
a(VBuildings
p3649
tp3650
a(VNo Buildings
p3651
tp3652
a(VNo Buildings
p3653
tp3654
a(VNo Buildings
p3655
tp3656
a(VNo Buildings
p3657
tp3658
a(VBuildings
p3659
tp3660
a(VNo Buildings
p3661
tp3662
a(VNo Buildings
p3663
tp3664
a(VBuildings
p3665
tp3666
a(VNo Buildings
p3667
tp3668
a(VNo Buildings
p3669
tp3670
a(VBuildings
p3671
tp3672
a(VBuildings
p3673
tp3674
a(VNo Buildings
p3675
tp3676
a(VBuildings
p3677
tp3678
a(VNo Buildings
p3679
tp3680
a(VNo Buildings
p3681
tp3682
a(VNo Buildings
p3683
tp3684
a(VNo Buildings
p3685
tp3686
a(VNo Buildings
p3687
tp3688
a(VBuildings
p3689
tp3690
a(VNo Buildings
p3691
tp3692
a(VNo Buildings
p3693
tp3694
a(VNo Buildings
p3695
tp3696
a(VNo Buildings
p3697
tp3698
a(VBuildings
p3699
tp3700
a(VNo Buildings
p3701
tp3702
a(VNo Buildings
p3703
tp3704
a(VNo Buildings
p3705
tp3706
a(VNo Buildings
p3707
tp3708
a(VBuildings
p3709
tp3710
a(VNo Buildings
p3711
tp3712
a(VBuildings
p3713
tp3714
a(VNo Buildings
p3715
tp3716
a(VBuildings
p3717
tp3718
a(VBuildings
p3719
tp3720
a(VBuildings
p3721
tp3722
a(VNo Buildings
p3723
tp3724
a(VNo Buildings
p3725
tp3726
a(VNo Buildings
p3727
tp3728
a(VNo Buildings
p3729
tp3730
a(VNo Buildings
p3731
tp3732
a(VBuildings
p3733
tp3734
a(VBuildings
p3735
tp3736
a(VNo Buildings
p3737
tp3738
a(VNo Buildings
p3739
tp3740
a(VBuildings
p3741
tp3742
a(VNo Buildings
p3743
tp3744
a(VNo Buildings
p3745
tp3746
a(VNo Buildings
p3747
tp3748
a(VNo Buildings
p3749
tp3750
a(VNo Buildings
p3751
tp3752
a(VNo Buildings
p3753
tp3754
a(VNo Buildings
p3755
tp3756
a(VNo Buildings
p3757
tp3758
a(VBuildings
p3759
tp3760
a(VNo Buildings
p3761
tp3762
a(VNo Buildings
p3763
tp3764
a(VBuildings
p3765
tp3766
a(VBuildings
p3767
tp3768
a(VNo Buildings
p3769
tp3770
a(VBuildings
p3771
tp3772
a(VNo Buildings
p3773
tp3774
a(VBuildings
p3775
tp3776
a(VNo Buildings
p3777
tp3778
a(VNo Buildings
p3779
tp3780
a(VBuildings
p3781
tp3782
a(VNo Buildings
p3783
tp3784
a(VNo Buildings
p3785
tp3786
a(VNo Buildings
p3787
tp3788
a(VNo Buildings
p3789
tp3790
a(VNo Buildings
p3791
tp3792
a(VBuildings
p3793
tp3794
a(VNo Buildings
p3795
tp3796
a(VBuildings
p3797
tp3798
a(VNo Buildings
p3799
tp3800
a(VNo Buildings
p3801
tp3802
a(VBuildings
p3803
tp3804
a(VNo Buildings
p3805
tp3806
a(VBuildings
p3807
tp3808
a(VNo Buildings
p3809
tp3810
a(VBuildings
p3811
tp3812
a(VNo Buildings
p3813
tp3814
a(VBuildings
p3815
tp3816
a(VBuildings
p3817
tp3818
a(VNo Buildings
p3819
tp3820
a(VNo Buildings
p3821
tp3822
a(VBuildings
p3823
tp3824
a(VNo Buildings
p3825
tp3826
a(VNo Buildings
p3827
tp3828
a(VNo Buildings
p3829
tp3830
a(VBuildings
p3831
tp3832
a(VBuildings
p3833
tp3834
a(VNo Buildings
p3835
tp3836
a(VNo Buildings
p3837
tp3838
a(VBuildings
p3839
tp3840
a(VNo Buildings
p3841
tp3842
a(VNo Buildings
p3843
tp3844
a(VNo Buildings
p3845
tp3846
a(VNo Buildings
p3847
tp3848
a(VNo Buildings
p3849
tp3850
a(VNo Buildings
p3851
tp3852
a(VBuildings
p3853
tp3854
a(VNo Buildings
p3855
tp3856
a(VBuildings
p3857
tp3858
a(VNo Buildings
p3859
tp3860
a(VNo Buildings
p3861
tp3862
a(VNo Buildings
p3863
tp3864
a(VBuildings
p3865
tp3866
a(VBuildings
p3867
tp3868
a(VNo Buildings
p3869
tp3870
a(VNo Buildings
p3871
tp3872
a(VNo Buildings
p3873
tp3874
a(VNo Buildings
p3875
tp3876
a(VNo Buildings
p3877
tp3878
a(VBuildings
p3879
tp3880
a(VNo Buildings
p3881
tp3882
a(VNo Buildings
p3883
tp3884
a(VBuildings
p3885
tp3886
a(VNo Buildings
p3887
tp3888
a(VNo Buildings
p3889
tp3890
a(VNo Buildings
p3891
tp3892
a(VBuildings
p3893
tp3894
a(VBuildings
p3895
tp3896
a(VBuildings
p3897
tp3898
a(VNo Buildings
p3899
tp3900
a(VNo Buildings
p3901
tp3902
a(VBuildings
p3903
tp3904
a(VBuildings
p3905
tp3906
a(VBuildings
p3907
tp3908
a(VNo Buildings
p3909
tp3910
a(VNo Buildings
p3911
tp3912
a(VNo Buildings
p3913
tp3914
a(VNo Buildings
p3915
tp3916
a(VBuildings
p3917
tp3918
a(VNo Buildings
p3919
tp3920
a(VBuildings
p3921
tp3922
a(VNo Buildings
p3923
tp3924
a(VNo Buildings
p3925
tp3926
a(VBuildings
p3927
tp3928
a(VBuildings
p3929
tp3930
a(VNo Buildings
p3931
tp3932
a(VNo Buildings
p3933
tp3934
a(VBuildings
p3935
tp3936
a(VNo Buildings
p3937
tp3938
a(VNo Buildings
p3939
tp3940
a(VNo Buildings
p3941
tp3942
a(VNo Buildings
p3943
tp3944
a(VNo Buildings
p3945
tp3946
a(VNo Buildings
p3947
tp3948
a(VBuildings
p3949
tp3950
a(VBuildings
p3951
tp3952
a(VNo Buildings
p3953
tp3954
a(VBuildings
p3955
tp3956
a(VBuildings
p3957
tp3958
a(VNo Buildings
p3959
tp3960
a(VBuildings
p3961
tp3962
a(VNo Buildings
p3963
tp3964
a(VNo Buildings
p3965
tp3966
a(VNo Buildings
p3967
tp3968
a(VNo Buildings
p3969
tp3970
a(VBuildings
p3971
tp3972
a(VNo Buildings
p3973
tp3974
a(VNo Buildings
p3975
tp3976
a(VNo Buildings
p3977
tp3978
a(VBuildings
p3979
tp3980
a(VBuildings
p3981
tp3982
a(VBuildings
p3983
tp3984
a(VNo Buildings
p3985
tp3986
a(VNo Buildings
p3987
tp3988
a(VNo Buildings
p3989
tp3990
a(VBuildings
p3991
tp3992
a(VBuildings
p3993
tp3994
a(VNo Buildings
p3995
tp3996
a(VNo Buildings
p3997
tp3998
a(VNo Buildings
p3999
tp4000
a.